; Function Attrs: mustprogress nofree nounwind willreturn memory(read) uwtable
define dso_local i64 @_ZNK5clang19OMPCapturedExprDecl14getSourceRangeEv(ptr noundef nonnull align 8 dereferenceable(104) %0) unnamed_addr #5 align 2 {
  %2 = tail call noundef ptr @_ZN5clang7VarDecl7getInitEv(ptr noundef nonnull align 8 dereferenceable(100) %0) #10
  %3 = tail call i32 @_ZNK5clang4Stmt11getBeginLocEv(ptr noundef nonnull align 8 dereferenceable(8) %2) #11
  %4 = tail call noundef ptr @_ZN5clang7VarDecl7getInitEv(ptr noundef nonnull align 8 dereferenceable(100) %0) #10
  %5 = tail call i32 @_ZNK5clang4Stmt9getEndLocEv(ptr noundef nonnull align 8 dereferenceable(8) %4) #11
  %.sroa.2.0.insert.ext = zext i32 %5 to i64
  %.sroa.2.0.insert.shift = shl nuw i64 %.sroa.2.0.insert.ext, 32
  %.sroa.0.0.insert.ext = zext i32 %3 to i64
  %.sroa.0.0.insert.insert = or disjoint i64 %.sroa.2.0.insert.shift, %.sroa.0.0.insert.ext
  ret i64 %.sroa.0.0.insert.insert
}